; Function Attrs: nofree nounwind uwtable
define range(i64 0, 4294967296) i64 @zfp_decode_block_strided_double_4(ptr noundef readonly captures(none) %0, ptr noundef writeonly captures(none) %1, i64 noundef %2, i64 noundef %3, i64 noundef %4, i64 noundef %5) local_unnamed_addr #0 {
  %7 = alloca [256 x double], align 256
  call void @llvm.lifetime.start.p0(i64 2048, ptr nonnull %7) #8
  %8 = call i64 @zfp_decode_block_double_4(ptr noundef %0, ptr noundef nonnull %7)
  %9 = shl nsw i64 %2, 2
  %10 = sub nsw i64 %3, %9
  %11 = shl nsw i64 %3, 2
  %12 = sub nsw i64 %4, %11
  %13 = shl nsw i64 %4, 2
  %14 = sub nsw i64 %5, %13
  br label %.preheader29.i

.preheader29.i:                                   ; preds = %26, %6
  %.041.i = phi i32 [ 0, %6 ], [ %27, %26 ]
  %.02340.i = phi ptr [ %7, %6 ], [ %16, %26 ]
  %.02439.i = phi ptr [ %1, %6 ], [ %28, %26 ]
  br label %.preheader28.i

.preheader28.i:                                   ; preds = %23, %.preheader29.i
  %.02038.i = phi i32 [ 0, %.preheader29.i ], [ %24, %23 ]
  %.137.i = phi ptr [ %.02340.i, %.preheader29.i ], [ %16, %23 ]
  %.12536.i = phi ptr [ %.02439.i, %.preheader29.i ], [ %25, %23 ]
  br label %.preheader.i

.preheader.i:                                     ; preds = %20, %.preheader28.i
  %.02135.i = phi i32 [ 0, %.preheader28.i ], [ %21, %20 ]
  %.234.i = phi ptr [ %.137.i, %.preheader28.i ], [ %16, %20 ]
  %.22633.i = phi ptr [ %.12536.i, %.preheader28.i ], [ %22, %20 ]
  br label %15

15:                                               ; preds = %15, %.preheader.i
  %.02232.i = phi i32 [ 0, %.preheader.i ], [ %18, %15 ]
  %.331.i = phi ptr [ %.234.i, %.preheader.i ], [ %16, %15 ]
  %.32730.i = phi ptr [ %.22633.i, %.preheader.i ], [ %19, %15 ]
  %16 = getelementptr inbounds nuw i8, ptr %.331.i, i64 8
  %17 = load double, ptr %.331.i, align 8, !tbaa !20
  store double %17, ptr %.32730.i, align 8, !tbaa !20
  %18 = add nuw nsw i32 %.02232.i, 1
  %19 = getelementptr inbounds double, ptr %.32730.i, i64 %2
  %exitcond.not.i = icmp eq i32 %18, 4
  br i1 %exitcond.not.i, label %20, label %15

20:                                               ; preds = %15
  %21 = add nuw nsw i32 %.02135.i, 1
  %22 = getelementptr inbounds double, ptr %19, i64 %10
  %exitcond45.not.i = icmp eq i32 %21, 4
  br i1 %exitcond45.not.i, label %23, label %.preheader.i

23:                                               ; preds = %20
  %24 = add nuw nsw i32 %.02038.i, 1
  %25 = getelementptr inbounds double, ptr %22, i64 %12
  %exitcond46.not.i = icmp eq i32 %24, 4
  br i1 %exitcond46.not.i, label %26, label %.preheader28.i

26:                                               ; preds = %23
  %27 = add nuw nsw i32 %.041.i, 1
  %28 = getelementptr inbounds double, ptr %25, i64 %14
  %exitcond47.not.i = icmp eq i32 %27, 4
  br i1 %exitcond47.not.i, label %scatter_double_4.exit, label %.preheader29.i

scatter_double_4.exit:                            ; preds = %26
  call void @llvm.lifetime.end.p0(i64 2048, ptr nonnull %7) #8
  ret i64 %8
}